; Function Attrs: mustprogress nounwind uwtable
define dso_local void @_ZN5clang14TextNodeDumper20VisitUsingShadowDeclEPKNS_15UsingShadowDeclE(ptr noundef nonnull align 8 dereferenceable(1168) %0, ptr nocapture noundef readonly %1) local_unnamed_addr #0 align 2 {
  %3 = getelementptr inbounds nuw i8, ptr %0, i64 1096
  %4 = load ptr, ptr %3, align 8
  %5 = getelementptr inbounds nuw i8, ptr %4, i64 32
  %6 = load ptr, ptr %5, align 8
  %7 = getelementptr inbounds nuw i8, ptr %4, i64 24
  %8 = load ptr, ptr %7, align 8
  %.not.i = icmp ult ptr %6, %8
  br i1 %.not.i, label %11, label %9

9:                                                ; preds = %2
  %10 = tail call noundef nonnull align 8 dereferenceable(48) ptr @_ZN4llvm11raw_ostream5writeEh(ptr noundef nonnull align 8 dereferenceable(48) %4, i8 noundef zeroext 32) #18
  br label %_ZN4llvm11raw_ostreamlsEc.exit

11:                                               ; preds = %2
  %12 = getelementptr inbounds i8, ptr %6, i64 1
  store ptr %12, ptr %5, align 8
  store i8 32, ptr %6, align 1
  br label %_ZN4llvm11raw_ostreamlsEc.exit

_ZN4llvm11raw_ostreamlsEc.exit:                   ; preds = %9, %11
  %13 = getelementptr inbounds nuw i8, ptr %1, i64 64
  %14 = load ptr, ptr %13, align 8
  tail call void @_ZN5clang14TextNodeDumper15dumpBareDeclRefEPKNS_4DeclE(ptr noundef nonnull align 8 dereferenceable(1168) %0, ptr noundef %14)
  ret void
}